target datalayout = "e-m:e-p270:32:32-p271:32:32-p272:64:64-i64:64-i128:128-f80:128-n8:16:32:64-S128"
target triple = "x86_64-pc-linux-gnu"

%struct._e_guid_t = type { i32, i16, i16, [8 x i8] }

@.str.10 = private unnamed_addr constant [19 x i8] c"[Buffer too small]\00", align 1

; Function Attrs: null_pointer_is_valid sspstrong uwtable
define ptr @guid_to_str_buf(ptr noundef %0, ptr noundef %1, i32 noundef %2) #0 {
  %4 = alloca ptr, align 8
  %5 = alloca ptr, align 8
  %6 = alloca ptr, align 8
  %7 = alloca i32, align 4
  %8 = alloca ptr, align 8
  %9 = alloca i32, align 4
  store ptr %0, ptr %5, align 8
  store ptr %1, ptr %6, align 8
  store i32 %2, ptr %7, align 4
  call void @llvm.lifetime.start.p0(i64 8, ptr %8) #8
  %10 = load ptr, ptr %6, align 8
  store ptr %10, ptr %8, align 8
  %11 = load i32, ptr %7, align 4
  %12 = icmp slt i32 %11, 37
  br i1 %12, label %13, label %19

13:                                               ; preds = %3
  %14 = load ptr, ptr %6, align 8
  %15 = load i32, ptr %7, align 4
  %16 = sext i32 %15 to i64
  %17 = call i64 @g_strlcpy(ptr noundef %14, ptr noundef @.str.10, i64 noundef %16)
  %18 = load ptr, ptr %6, align 8
  store ptr %18, ptr %4, align 8
  store i32 1, ptr %9, align 4
  br label %55

19:                                               ; preds = %3
  %20 = load ptr, ptr %8, align 8
  %21 = load ptr, ptr %5, align 8
  %22 = getelementptr inbounds nuw %struct._e_guid_t, ptr %21, i32 0, i32 0
  %23 = load i32, ptr %22, align 4
  %24 = call ptr @dword_to_hex(ptr noundef %20, i32 noundef %23)
  store ptr %24, ptr %8, align 8
  %25 = load ptr, ptr %8, align 8
  %26 = getelementptr i8, ptr %25, i32 1
  store ptr %26, ptr %8, align 8
  store i8 45, ptr %25, align 1
  %27 = load ptr, ptr %8, align 8
  %28 = load ptr, ptr %5, align 8
  %29 = getelementptr inbounds nuw %struct._e_guid_t, ptr %28, i32 0, i32 1
  %30 = load i16, ptr %29, align 4
  %31 = call ptr @word_to_hex(ptr noundef %27, i16 noundef zeroext %30)
  store ptr %31, ptr %8, align 8
  %32 = load ptr, ptr %8, align 8
  %33 = getelementptr i8, ptr %32, i32 1
  store ptr %33, ptr %8, align 8
  store i8 45, ptr %32, align 1
  %34 = load ptr, ptr %8, align 8
  %35 = load ptr, ptr %5, align 8
  %36 = getelementptr inbounds nuw %struct._e_guid_t, ptr %35, i32 0, i32 2
  %37 = load i16, ptr %36, align 2
  %38 = call ptr @word_to_hex(ptr noundef %34, i16 noundef zeroext %37)
  store ptr %38, ptr %8, align 8
  %39 = load ptr, ptr %8, align 8
  %40 = getelementptr i8, ptr %39, i32 1
  store ptr %40, ptr %8, align 8
  store i8 45, ptr %39, align 1
  %41 = load ptr, ptr %8, align 8
  %42 = load ptr, ptr %5, align 8
  %43 = getelementptr inbounds nuw %struct._e_guid_t, ptr %42, i32 0, i32 3
  %44 = getelementptr [8 x i8], ptr %43, i64 0, i64 0
  %45 = call ptr @bytes_to_hexstr(ptr noundef %41, ptr noundef %44, i64 noundef 2)
  store ptr %45, ptr %8, align 8
  %46 = load ptr, ptr %8, align 8
  %47 = getelementptr i8, ptr %46, i32 1
  store ptr %47, ptr %8, align 8
  store i8 45, ptr %46, align 1
  %48 = load ptr, ptr %8, align 8
  %49 = load ptr, ptr %5, align 8
  %50 = getelementptr inbounds nuw %struct._e_guid_t, ptr %49, i32 0, i32 3
  %51 = getelementptr [8 x i8], ptr %50, i64 0, i64 2
  %52 = call ptr @bytes_to_hexstr(ptr noundef %48, ptr noundef %51, i64 noundef 6)
  store ptr %52, ptr %8, align 8
  %53 = load ptr, ptr %8, align 8
  store i8 0, ptr %53, align 1
  %54 = load ptr, ptr %6, align 8
  store ptr %54, ptr %4, align 8
  store i32 1, ptr %9, align 4
  br label %55

55:                                               ; preds = %19, %13
  call void @llvm.lifetime.end.p0(i64 8, ptr %8) #8
  %56 = load ptr, ptr %4, align 8
  ret ptr %56
}