; Function Attrs: null_pointer_is_valid sspstrong uwtable
define noundef ptr @guid_to_str_buf(ptr noundef %0, ptr noundef returned %1, i32 noundef %2) local_unnamed_addr #0 {
  %4 = icmp slt i32 %2, 37
  br i1 %4, label %5, label %8

5:                                                ; preds = %3
  %6 = sext i32 %2 to i64
  %7 = tail call i64 @g_strlcpy(ptr noundef %1, ptr noundef nonnull @.str.10, i64 noundef %6)
  br label %25

8:                                                ; preds = %3
  %9 = load i32, ptr %0, align 4
  %10 = tail call ptr @dword_to_hex(ptr noundef %1, i32 noundef %9)
  %11 = getelementptr i8, ptr %10, i64 1
  store i8 45, ptr %10, align 1
  %12 = getelementptr inbounds nuw i8, ptr %0, i64 4
  %13 = load i16, ptr %12, align 4
  %14 = tail call ptr @word_to_hex(ptr noundef %11, i16 noundef zeroext %13)
  %15 = getelementptr i8, ptr %14, i64 1
  store i8 45, ptr %14, align 1
  %16 = getelementptr inbounds nuw i8, ptr %0, i64 6
  %17 = load i16, ptr %16, align 2
  %18 = tail call ptr @word_to_hex(ptr noundef %15, i16 noundef zeroext %17)
  %19 = getelementptr i8, ptr %18, i64 1
  store i8 45, ptr %18, align 1
  %20 = getelementptr inbounds nuw i8, ptr %0, i64 8
  %21 = tail call ptr @bytes_to_hexstr(ptr noundef %19, ptr noundef nonnull %20, i64 noundef 2)
  %22 = getelementptr i8, ptr %21, i64 1
  store i8 45, ptr %21, align 1
  %23 = getelementptr i8, ptr %0, i64 10
  %24 = tail call ptr @bytes_to_hexstr(ptr noundef %22, ptr noundef %23, i64 noundef 6)
  store i8 0, ptr %24, align 1
  br label %25

25:                                               ; preds = %8, %5
  ret ptr %1
}